; Function Attrs: nofree norecurse nosync nounwind memory(write, argmem: readwrite, inaccessiblemem: none) uwtable
define hidden range(i32 1, 0) i32 @mbedtls_asn1_write_len(ptr noundef captures(none) %0, ptr noundef %1, i64 noundef %2) local_unnamed_addr #0 {
  %4 = icmp ugt i64 %2, 4294967295
  br i1 %4, label %26, label %5

5:                                                ; preds = %3
  %6 = icmp samesign ugt i64 %2, 127
  br i1 %6, label %.preheader23, label %.loopexit

.preheader23:                                     ; preds = %5, %.preheader23
  %.025 = phi i64 [ %8, %.preheader23 ], [ %2, %5 ]
  %.124 = phi i32 [ %7, %.preheader23 ], [ 1, %5 ]
  %7 = add nuw nsw i32 %.124, 1
  %8 = lshr i64 %.025, 8
  %.not = icmp ult i64 %.025, 256
  br i1 %.not, label %.loopexit, label %.preheader23, !llvm.loop !3

.loopexit:                                        ; preds = %.preheader23, %5
  %.017 = phi i32 [ 1, %5 ], [ %7, %.preheader23 ]
  %9 = zext nneg i32 %.017 to i64
  %10 = load ptr, ptr %0, align 8, !tbaa !5
  %11 = ptrtoint ptr %10 to i64
  %12 = ptrtoint ptr %1 to i64
  %13 = sub i64 %11, %12
  %14 = icmp slt i64 %13, %9
  br i1 %14, label %26, label %.preheader

.preheader:                                       ; preds = %.loopexit, %.preheader
  %.018 = phi i64 [ %18, %.preheader ], [ %2, %.loopexit ]
  %15 = trunc i64 %.018 to i8
  %16 = load ptr, ptr %0, align 8, !tbaa !5
  %17 = getelementptr inbounds i8, ptr %16, i64 -1
  store ptr %17, ptr %0, align 8, !tbaa !5
  store i8 %15, ptr %17, align 1, !tbaa !10
  %18 = lshr i64 %.018, 8
  %.not22 = icmp ult i64 %.018, 256
  br i1 %.not22, label %19, label %.preheader, !llvm.loop !11

19:                                               ; preds = %.preheader
  %20 = icmp samesign ugt i32 %.017, 1
  br i1 %20, label %21, label %26

21:                                               ; preds = %19
  %22 = trunc i32 %.017 to i8
  %23 = add i8 %22, 127
  %24 = load ptr, ptr %0, align 8, !tbaa !5
  %25 = getelementptr inbounds i8, ptr %24, i64 -1
  store ptr %25, ptr %0, align 8, !tbaa !5
  store i8 %23, ptr %25, align 1, !tbaa !10
  br label %26

26:                                               ; preds = %.loopexit, %21, %19, %3
  %.019 = phi i32 [ -100, %3 ], [ -108, %.loopexit ], [ %.017, %21 ], [ 1, %19 ]
  ret i32 %.019
}